; Function Attrs: nounwind uwtable
define ptr @l_Lean_Elab_Tactic_NormCast_proveEqUsingDown___lambda__2(ptr noundef %0, ptr noundef %1, ptr noundef %2, ptr noundef %3, ptr noundef %4, ptr noundef %5, ptr noundef %6, ptr noundef %7) local_unnamed_addr #0 {
  %9 = tail call ptr @l_Lean_Meta_SimpExtension_getTheorems(ptr noundef %0, ptr noundef %5, ptr noundef %6, ptr noundef %7) #5
  %10 = getelementptr inbounds nuw i8, ptr %9, i64 8
  %11 = load ptr, ptr %10, align 8, !tbaa !4
  %12 = ptrtoint ptr %11 to i64
  %13 = and i64 %12, 1
  %.not = icmp eq i64 %13, 0
  br i1 %.not, label %14, label %lean_inc.exit18

14:                                               ; preds = %8
  %.val.i = load i32, ptr %11, align 4, !tbaa !8
  %15 = icmp sgt i32 %.val.i, 0
  br i1 %15, label %16, label %18, !prof !11

16:                                               ; preds = %14
  %17 = add nuw i32 %.val.i, 1
  store i32 %17, ptr %11, align 4, !tbaa !8
  br label %lean_inc.exit18

18:                                               ; preds = %14
  %.not.i19 = icmp eq i32 %.val.i, 0
  br i1 %.not.i19, label %lean_inc.exit18, label %19

19:                                               ; preds = %18
  tail call void @lean_inc_ref_cold(ptr noundef nonnull %11) #5
  br label %lean_inc.exit18

lean_inc.exit18:                                  ; preds = %19, %18, %16, %8
  %20 = getelementptr inbounds nuw i8, ptr %9, i64 16
  %21 = load ptr, ptr %20, align 8, !tbaa !4
  %22 = ptrtoint ptr %21 to i64
  %23 = and i64 %22, 1
  %.not23 = icmp eq i64 %23, 0
  br i1 %.not23, label %24, label %lean_inc.exit

24:                                               ; preds = %lean_inc.exit18
  %.val.i20 = load i32, ptr %21, align 4, !tbaa !8
  %25 = icmp sgt i32 %.val.i20, 0
  br i1 %25, label %26, label %28, !prof !11

26:                                               ; preds = %24
  %27 = add nuw i32 %.val.i20, 1
  store i32 %27, ptr %21, align 4, !tbaa !8
  br label %lean_inc.exit

28:                                               ; preds = %24
  %.not.i21 = icmp eq i32 %.val.i20, 0
  br i1 %.not.i21, label %lean_inc.exit, label %29

29:                                               ; preds = %28
  tail call void @lean_inc_ref_cold(ptr noundef nonnull %21) #5
  br label %lean_inc.exit

lean_inc.exit:                                    ; preds = %29, %28, %26, %lean_inc.exit18
  %30 = ptrtoint ptr %9 to i64
  %31 = and i64 %30, 1
  %.not24 = icmp eq i64 %31, 0
  br i1 %.not24, label %32, label %lean_dec.exit

32:                                               ; preds = %lean_inc.exit
  %33 = load i32, ptr %9, align 4, !tbaa !8
  %34 = icmp sgt i32 %33, 1
  br i1 %34, label %35, label %37, !prof !11

35:                                               ; preds = %32
  %36 = add nsw i32 %33, -1
  store i32 %36, ptr %9, align 4, !tbaa !8
  br label %lean_dec.exit

37:                                               ; preds = %32
  %.not.i = icmp eq i32 %33, 0
  br i1 %.not.i, label %lean_dec.exit, label %38

38:                                               ; preds = %37
  tail call void @lean_dec_ref_cold(ptr noundef nonnull %9) #5
  br label %lean_dec.exit

lean_dec.exit:                                    ; preds = %38, %37, %35, %lean_inc.exit
  %39 = tail call ptr @l_Lean_Elab_Tactic_NormCast_proveEqUsing(ptr noundef %11, ptr noundef %1, ptr noundef %2, ptr noundef %3, ptr noundef %4, ptr noundef %5, ptr noundef %6, ptr noundef %21)
  ret ptr %39
}